target datalayout = "e-m:e-p270:32:32-p271:32:32-p272:64:64-i64:64-i128:128-f80:128-n8:16:32:64-S128"
target triple = "x86_64-pc-linux-gnu"

%"struct.Imf_3_4::Rgba" = type { %"class.Imath_3_2::half", %"class.Imath_3_2::half", %"class.Imath_3_2::half", %"class.Imath_3_2::half" }
%"class.Imath_3_2::half" = type { i16 }

; Function Attrs: inlinehint mustprogress nounwind uwtable
define linkonce_odr hidden void @_ZN9Imath_3_24halfC2ENS0_11FromBitsTagEt(ptr noundef nonnull align 2 dereferenceable(2) %0, i32 noundef %1, i16 noundef zeroext %2) unnamed_addr #6 comdat align 2 {
  %4 = alloca ptr, align 8
  %5 = alloca i32, align 4
  %6 = alloca i16, align 2
  store ptr %0, ptr %4, align 8, !tbaa !32
  store i32 %1, ptr %5, align 4, !tbaa !51
  store i16 %2, ptr %6, align 2, !tbaa !25
  %7 = load ptr, ptr %4, align 8
  %8 = getelementptr inbounds nuw %"class.Imath_3_2::half", ptr %7, i32 0, i32 0
  %9 = load i16, ptr %6, align 2, !tbaa !25
  store i16 %9, ptr %8, align 2, !tbaa !34
  ret void
}

; Function Attrs: inlinehint mustprogress nounwind uwtable
define linkonce_odr hidden i16 @_ZNK9Imath_3_24half5roundEj(ptr noundef nonnull align 2 dereferenceable(2) %0, i32 noundef %1) #6 comdat align 2 {
  %3 = alloca %"class.Imath_3_2::half", align 2
  %4 = alloca ptr, align 8
  %5 = alloca i32, align 4
  %6 = alloca i16, align 2
  %7 = alloca i16, align 2
  store ptr %0, ptr %4, align 8, !tbaa !32
  store i32 %1, ptr %5, align 4, !tbaa !12
  %8 = load ptr, ptr %4, align 8
  %9 = load i32, ptr %5, align 4, !tbaa !12
  %10 = icmp uge i32 %9, 10
  br i1 %10, label %11, label %12

11:                                               ; preds = %2
  call void @llvm.memcpy.p0.p0.i64(ptr align 2 %3, ptr align 2 %8, i64 2, i1 false), !tbaa.struct !27
  br label %67

12:                                               ; preds = %2
  call void @llvm.lifetime.start.p0(i64 2, ptr %6) #3
  %13 = getelementptr inbounds nuw %"class.Imath_3_2::half", ptr %8, i32 0, i32 0
  %14 = load i16, ptr %13, align 2, !tbaa !34
  %15 = zext i16 %14 to i32
  %16 = and i32 %15, 32768
  %17 = trunc i32 %16 to i16
  store i16 %17, ptr %6, align 2, !tbaa !25
  call void @llvm.lifetime.start.p0(i64 2, ptr %7) #3
  %18 = getelementptr inbounds nuw %"class.Imath_3_2::half", ptr %8, i32 0, i32 0
  %19 = load i16, ptr %18, align 2, !tbaa !34
  %20 = zext i16 %19 to i32
  %21 = and i32 %20, 32767
  %22 = trunc i32 %21 to i16
  store i16 %22, ptr %7, align 2, !tbaa !25
  %23 = load i32, ptr %5, align 4, !tbaa !12
  %24 = sub i32 9, %23
  %25 = load i16, ptr %7, align 2, !tbaa !25
  %26 = zext i16 %25 to i32
  %27 = ashr i32 %26, %24
  %28 = trunc i32 %27 to i16
  store i16 %28, ptr %7, align 2, !tbaa !25
  %29 = load i16, ptr %7, align 2, !tbaa !25
  %30 = zext i16 %29 to i32
  %31 = and i32 %30, 1
  %32 = load i16, ptr %7, align 2, !tbaa !25
  %33 = zext i16 %32 to i32
  %34 = add nsw i32 %33, %31
  %35 = trunc i32 %34 to i16
  store i16 %35, ptr %7, align 2, !tbaa !25
  %36 = load i32, ptr %5, align 4, !tbaa !12
  %37 = sub i32 9, %36
  %38 = load i16, ptr %7, align 2, !tbaa !25
  %39 = zext i16 %38 to i32
  %40 = shl i32 %39, %37
  %41 = trunc i32 %40 to i16
  store i16 %41, ptr %7, align 2, !tbaa !25
  %42 = load i16, ptr %7, align 2, !tbaa !25
  %43 = zext i16 %42 to i32
  %44 = icmp sge i32 %43, 31744
  br i1 %44, label %45, label %60

45:                                               ; preds = %12
  %46 = getelementptr inbounds nuw %"class.Imath_3_2::half", ptr %8, i32 0, i32 0
  %47 = load i16, ptr %46, align 2, !tbaa !34
  store i16 %47, ptr %7, align 2, !tbaa !25
  %48 = load i32, ptr %5, align 4, !tbaa !12
  %49 = sub i32 10, %48
  %50 = load i16, ptr %7, align 2, !tbaa !25
  %51 = zext i16 %50 to i32
  %52 = ashr i32 %51, %49
  %53 = trunc i32 %52 to i16
  store i16 %53, ptr %7, align 2, !tbaa !25
  %54 = load i32, ptr %5, align 4, !tbaa !12
  %55 = sub i32 10, %54
  %56 = load i16, ptr %7, align 2, !tbaa !25
  %57 = zext i16 %56 to i32
  %58 = shl i32 %57, %55
  %59 = trunc i32 %58 to i16
  store i16 %59, ptr %7, align 2, !tbaa !25
  br label %60

60:                                               ; preds = %45, %12
  %61 = load i16, ptr %6, align 2, !tbaa !25
  %62 = zext i16 %61 to i32
  %63 = load i16, ptr %7, align 2, !tbaa !25
  %64 = zext i16 %63 to i32
  %65 = or i32 %62, %64
  %66 = trunc i32 %65 to i16
  call void @_ZN9Imath_3_24halfC2ENS0_11FromBitsTagEt(ptr noundef nonnull align 2 dereferenceable(2) %3, i32 noundef 0, i16 noundef zeroext %66) #3
  call void @llvm.lifetime.end.p0(i64 2, ptr %7) #3
  call void @llvm.lifetime.end.p0(i64 2, ptr %6) #3
  br label %67

67:                                               ; preds = %60, %11
  %68 = getelementptr inbounds nuw %"class.Imath_3_2::half", ptr %3, i32 0, i32 0
  %69 = load i16, ptr %68, align 2
  ret i16 %69
}

; Function Attrs: mustprogress nounwind uwtable
define void @_ZN7Imf_3_47RgbaYca8roundYCAEijjPKNS_4RgbaEPS1_(i32 noundef %0, i32 noundef %1, i32 noundef %2, ptr noundef %3, ptr noundef %4) #9 {
  %6 = alloca i32, align 4
  %7 = alloca i32, align 4
  %8 = alloca i32, align 4
  %9 = alloca ptr, align 8
  %10 = alloca ptr, align 8
  %11 = alloca i32, align 4
  %12 = alloca %"class.Imath_3_2::half", align 2
  %13 = alloca %"class.Imath_3_2::half", align 2
  %14 = alloca %"class.Imath_3_2::half", align 2
  store i32 %0, ptr %6, align 4, !tbaa !12
  store i32 %1, ptr %7, align 4, !tbaa !12
  store i32 %2, ptr %8, align 4, !tbaa !12
  store ptr %3, ptr %9, align 8, !tbaa !22
  store ptr %4, ptr %10, align 8, !tbaa !22
  call void @llvm.lifetime.start.p0(i64 4, ptr %11) #3
  store i32 0, ptr %11, align 4, !tbaa !12
  br label %15

15:                                               ; preds = %75, %5
  %16 = load i32, ptr %11, align 4, !tbaa !12
  %17 = load i32, ptr %6, align 4, !tbaa !12
  %18 = icmp slt i32 %16, %17
  br i1 %18, label %20, label %19

19:                                               ; preds = %15
  call void @llvm.lifetime.end.p0(i64 4, ptr %11) #3
  br label %78

20:                                               ; preds = %15
  call void @llvm.lifetime.start.p0(i64 2, ptr %12) #3
  %21 = load ptr, ptr %9, align 8, !tbaa !22
  %22 = load i32, ptr %11, align 4, !tbaa !12
  %23 = sext i32 %22 to i64
  %24 = getelementptr inbounds %"struct.Imf_3_4::Rgba", ptr %21, i64 %23
  %25 = getelementptr inbounds nuw %"struct.Imf_3_4::Rgba", ptr %24, i32 0, i32 1
  %26 = load i32, ptr %7, align 4, !tbaa !12
  %27 = call i16 @_ZNK9Imath_3_24half5roundEj(ptr noundef nonnull align 2 dereferenceable(2) %25, i32 noundef %26) #3
  %28 = getelementptr inbounds nuw %"class.Imath_3_2::half", ptr %12, i32 0, i32 0
  store i16 %27, ptr %28, align 2
  %29 = load ptr, ptr %10, align 8, !tbaa !22
  %30 = load i32, ptr %11, align 4, !tbaa !12
  %31 = sext i32 %30 to i64
  %32 = getelementptr inbounds %"struct.Imf_3_4::Rgba", ptr %29, i64 %31
  %33 = getelementptr inbounds nuw %"struct.Imf_3_4::Rgba", ptr %32, i32 0, i32 1
  call void @llvm.memcpy.p0.p0.i64(ptr align 2 %33, ptr align 2 %12, i64 2, i1 false), !tbaa.struct !27
  call void @llvm.lifetime.end.p0(i64 2, ptr %12) #3
  %34 = load ptr, ptr %9, align 8, !tbaa !22
  %35 = load i32, ptr %11, align 4, !tbaa !12
  %36 = sext i32 %35 to i64
  %37 = getelementptr inbounds %"struct.Imf_3_4::Rgba", ptr %34, i64 %36
  %38 = getelementptr inbounds nuw %"struct.Imf_3_4::Rgba", ptr %37, i32 0, i32 3
  %39 = load ptr, ptr %10, align 8, !tbaa !22
  %40 = load i32, ptr %11, align 4, !tbaa !12
  %41 = sext i32 %40 to i64
  %42 = getelementptr inbounds %"struct.Imf_3_4::Rgba", ptr %39, i64 %41
  %43 = getelementptr inbounds nuw %"struct.Imf_3_4::Rgba", ptr %42, i32 0, i32 3
  call void @llvm.memcpy.p0.p0.i64(ptr align 2 %43, ptr align 2 %38, i64 2, i1 false), !tbaa.struct !27
  %44 = load i32, ptr %11, align 4, !tbaa !12
  %45 = and i32 %44, 1
  %46 = icmp eq i32 %45, 0
  br i1 %46, label %47, label %74

47:                                               ; preds = %20
  call void @llvm.lifetime.start.p0(i64 2, ptr %13) #3
  %48 = load ptr, ptr %9, align 8, !tbaa !22
  %49 = load i32, ptr %11, align 4, !tbaa !12
  %50 = sext i32 %49 to i64
  %51 = getelementptr inbounds %"struct.Imf_3_4::Rgba", ptr %48, i64 %50
  %52 = getelementptr inbounds nuw %"struct.Imf_3_4::Rgba", ptr %51, i32 0, i32 0
  %53 = load i32, ptr %8, align 4, !tbaa !12
  %54 = call i16 @_ZNK9Imath_3_24half5roundEj(ptr noundef nonnull align 2 dereferenceable(2) %52, i32 noundef %53) #3
  %55 = getelementptr inbounds nuw %"class.Imath_3_2::half", ptr %13, i32 0, i32 0
  store i16 %54, ptr %55, align 2
  %56 = load ptr, ptr %10, align 8, !tbaa !22
  %57 = load i32, ptr %11, align 4, !tbaa !12
  %58 = sext i32 %57 to i64
  %59 = getelementptr inbounds %"struct.Imf_3_4::Rgba", ptr %56, i64 %58
  %60 = getelementptr inbounds nuw %"struct.Imf_3_4::Rgba", ptr %59, i32 0, i32 0
  call void @llvm.memcpy.p0.p0.i64(ptr align 2 %60, ptr align 2 %13, i64 2, i1 false), !tbaa.struct !27
  call void @llvm.lifetime.end.p0(i64 2, ptr %13) #3
  call void @llvm.lifetime.start.p0(i64 2, ptr %14) #3
  %61 = load ptr, ptr %9, align 8, !tbaa !22
  %62 = load i32, ptr %11, align 4, !tbaa !12
  %63 = sext i32 %62 to i64
  %64 = getelementptr inbounds %"struct.Imf_3_4::Rgba", ptr %61, i64 %63
  %65 = getelementptr inbounds nuw %"struct.Imf_3_4::Rgba", ptr %64, i32 0, i32 2
  %66 = load i32, ptr %8, align 4, !tbaa !12
  %67 = call i16 @_ZNK9Imath_3_24half5roundEj(ptr noundef nonnull align 2 dereferenceable(2) %65, i32 noundef %66) #3
  %68 = getelementptr inbounds nuw %"class.Imath_3_2::half", ptr %14, i32 0, i32 0
  store i16 %67, ptr %68, align 2
  %69 = load ptr, ptr %10, align 8, !tbaa !22
  %70 = load i32, ptr %11, align 4, !tbaa !12
  %71 = sext i32 %70 to i64
  %72 = getelementptr inbounds %"struct.Imf_3_4::Rgba", ptr %69, i64 %71
  %73 = getelementptr inbounds nuw %"struct.Imf_3_4::Rgba", ptr %72, i32 0, i32 2
  call void @llvm.memcpy.p0.p0.i64(ptr align 2 %73, ptr align 2 %14, i64 2, i1 false), !tbaa.struct !27
  call void @llvm.lifetime.end.p0(i64 2, ptr %14) #3
  br label %74

74:                                               ; preds = %47, %20
  br label %75

75:                                               ; preds = %74
  %76 = load i32, ptr %11, align 4, !tbaa !12
  %77 = add nsw i32 %76, 1
  store i32 %77, ptr %11, align 4, !tbaa !12
  br label %15, !llvm.loop !41

78:                                               ; preds = %19
  ret void
}