; Function Attrs: mustprogress nofree norecurse nosync nounwind memory(argmem: readwrite) uwtable
define void @_ZN7Imf_3_47RgbaYca8roundYCAEijjPKNS_4RgbaEPS1_(i32 noundef %0, i32 noundef %1, i32 noundef %2, ptr noundef readonly captures(none) %3, ptr noundef writeonly captures(none) %4) local_unnamed_addr #7 {
  %6 = icmp sgt i32 %0, 0
  br i1 %6, label %.lr.ph, label %._crit_edge

.lr.ph:                                           ; preds = %5
  %7 = icmp ugt i32 %1, 9
  %8 = sub nuw nsw i32 9, %1
  %9 = sub nuw nsw i32 10, %1
  %10 = shl nsw i32 -1, %9
  %11 = trunc nsw i32 %10 to i16
  %12 = icmp ugt i32 %2, 9
  %13 = sub nuw nsw i32 9, %2
  %14 = sub nuw nsw i32 10, %2
  %15 = shl nsw i32 -1, %14
  %16 = trunc nsw i32 %15 to i16
  %wide.trip.count53 = zext nneg i32 %0 to i64
  br i1 %12, label %.lr.ph.split.us, label %.lr.ph.split

.lr.ph.split.us:                                  ; preds = %.lr.ph
  br i1 %7, label %_ZNK9Imath_3_24half5roundEj.exit.us.us, label %_ZNK9Imath_3_24half5roundEj.exit.us

_ZNK9Imath_3_24half5roundEj.exit.us.us:           ; preds = %.lr.ph.split.us, %31
  %indvars.iv50 = phi i64 [ %indvars.iv.next51, %31 ], [ 0, %.lr.ph.split.us ]
  %17 = getelementptr inbounds nuw %"struct.Imf_3_4::Rgba", ptr %3, i64 %indvars.iv50
  %18 = getelementptr inbounds nuw i8, ptr %17, i64 2
  %19 = load i16, ptr %18, align 2, !tbaa !15
  %20 = getelementptr inbounds nuw %"struct.Imf_3_4::Rgba", ptr %4, i64 %indvars.iv50
  %21 = getelementptr inbounds nuw i8, ptr %20, i64 2
  store i16 %19, ptr %21, align 2, !tbaa !15
  %22 = getelementptr inbounds nuw i8, ptr %17, i64 6
  %23 = getelementptr inbounds nuw i8, ptr %20, i64 6
  %24 = load i16, ptr %22, align 2, !tbaa !15
  store i16 %24, ptr %23, align 2, !tbaa !15
  %25 = and i64 %indvars.iv50, 1
  %26 = icmp eq i64 %25, 0
  br i1 %26, label %_ZNK9Imath_3_24half5roundEj.exit26.thread.us.us, label %31

_ZNK9Imath_3_24half5roundEj.exit26.thread.us.us:  ; preds = %_ZNK9Imath_3_24half5roundEj.exit.us.us
  %27 = load i16, ptr %17, align 2, !tbaa !15
  store i16 %27, ptr %20, align 2, !tbaa !15
  %28 = getelementptr inbounds nuw i8, ptr %17, i64 4
  %29 = load i16, ptr %28, align 2, !tbaa !15
  %30 = getelementptr inbounds nuw i8, ptr %20, i64 4
  store i16 %29, ptr %30, align 2, !tbaa !15
  br label %31

31:                                               ; preds = %_ZNK9Imath_3_24half5roundEj.exit26.thread.us.us, %_ZNK9Imath_3_24half5roundEj.exit.us.us
  %indvars.iv.next51 = add nuw nsw i64 %indvars.iv50, 1
  %exitcond54.not = icmp eq i64 %indvars.iv.next51, %wide.trip.count53
  br i1 %exitcond54.not, label %._crit_edge, label %_ZNK9Imath_3_24half5roundEj.exit.us.us, !llvm.loop !27

_ZNK9Imath_3_24half5roundEj.exit.us:              ; preds = %.lr.ph.split.us, %58
  %indvars.iv45 = phi i64 [ %indvars.iv.next46, %58 ], [ 0, %.lr.ph.split.us ]
  %32 = getelementptr inbounds nuw %"struct.Imf_3_4::Rgba", ptr %3, i64 %indvars.iv45
  %33 = getelementptr inbounds nuw i8, ptr %32, i64 2
  %34 = load i16, ptr %33, align 2, !tbaa !15
  %35 = and i16 %34, -32768
  %36 = and i16 %34, 32767
  %37 = zext nneg i16 %36 to i32
  %38 = lshr i32 %37, %8
  %39 = and i32 %38, 1
  %40 = add nuw nsw i32 %39, %38
  %41 = shl nuw nsw i32 %40, %8
  %42 = trunc i32 %41 to i16
  %43 = and i32 %41, 64512
  %44 = icmp samesign ugt i32 %43, 31743
  %45 = and i16 %34, %11
  %.0.i.us = select i1 %44, i16 %45, i16 %42
  %46 = or i16 %.0.i.us, %35
  %47 = getelementptr inbounds nuw %"struct.Imf_3_4::Rgba", ptr %4, i64 %indvars.iv45
  %48 = getelementptr inbounds nuw i8, ptr %47, i64 2
  store i16 %46, ptr %48, align 2, !tbaa !15
  %49 = getelementptr inbounds nuw i8, ptr %32, i64 6
  %50 = getelementptr inbounds nuw i8, ptr %47, i64 6
  %51 = load i16, ptr %49, align 2, !tbaa !15
  store i16 %51, ptr %50, align 2, !tbaa !15
  %52 = and i64 %indvars.iv45, 1
  %53 = icmp eq i64 %52, 0
  br i1 %53, label %_ZNK9Imath_3_24half5roundEj.exit26.thread.us, label %58

_ZNK9Imath_3_24half5roundEj.exit26.thread.us:     ; preds = %_ZNK9Imath_3_24half5roundEj.exit.us
  %54 = load i16, ptr %32, align 2, !tbaa !15
  store i16 %54, ptr %47, align 2, !tbaa !15
  %55 = getelementptr inbounds nuw i8, ptr %32, i64 4
  %56 = load i16, ptr %55, align 2, !tbaa !15
  %57 = getelementptr inbounds nuw i8, ptr %47, i64 4
  store i16 %56, ptr %57, align 2, !tbaa !15
  br label %58

58:                                               ; preds = %_ZNK9Imath_3_24half5roundEj.exit26.thread.us, %_ZNK9Imath_3_24half5roundEj.exit.us
  %indvars.iv.next46 = add nuw nsw i64 %indvars.iv45, 1
  %exitcond49.not = icmp eq i64 %indvars.iv.next46, %wide.trip.count53
  br i1 %exitcond49.not, label %._crit_edge, label %_ZNK9Imath_3_24half5roundEj.exit.us, !llvm.loop !27

.lr.ph.split:                                     ; preds = %.lr.ph
  br i1 %7, label %_ZNK9Imath_3_24half5roundEj.exit.us33, label %_ZNK9Imath_3_24half5roundEj.exit

_ZNK9Imath_3_24half5roundEj.exit.us33:            ; preds = %.lr.ph.split, %97
  %indvars.iv40 = phi i64 [ %indvars.iv.next41, %97 ], [ 0, %.lr.ph.split ]
  %59 = getelementptr inbounds nuw %"struct.Imf_3_4::Rgba", ptr %3, i64 %indvars.iv40
  %60 = getelementptr inbounds nuw i8, ptr %59, i64 2
  %61 = load i16, ptr %60, align 2, !tbaa !15
  %62 = getelementptr inbounds nuw %"struct.Imf_3_4::Rgba", ptr %4, i64 %indvars.iv40
  %63 = getelementptr inbounds nuw i8, ptr %62, i64 2
  store i16 %61, ptr %63, align 2, !tbaa !15
  %64 = getelementptr inbounds nuw i8, ptr %59, i64 6
  %65 = getelementptr inbounds nuw i8, ptr %62, i64 6
  %66 = load i16, ptr %64, align 2, !tbaa !15
  store i16 %66, ptr %65, align 2, !tbaa !15
  %67 = and i64 %indvars.iv40, 1
  %68 = icmp eq i64 %67, 0
  br i1 %68, label %_ZNK9Imath_3_24half5roundEj.exit29.us35, label %97

_ZNK9Imath_3_24half5roundEj.exit29.us35:          ; preds = %_ZNK9Imath_3_24half5roundEj.exit.us33
  %69 = load i16, ptr %59, align 2, !tbaa !15
  %70 = and i16 %69, -32768
  %71 = and i16 %69, 32767
  %72 = zext nneg i16 %71 to i32
  %73 = lshr i32 %72, %13
  %74 = and i32 %73, 1
  %75 = add nuw nsw i32 %74, %73
  %76 = shl nuw nsw i32 %75, %13
  %77 = trunc i32 %76 to i16
  %78 = and i32 %76, 64512
  %79 = icmp samesign ugt i32 %78, 31743
  %80 = and i16 %69, %16
  %.0.i24.us = select i1 %79, i16 %80, i16 %77
  %81 = or i16 %.0.i24.us, %70
  store i16 %81, ptr %62, align 2, !tbaa !15
  %82 = getelementptr inbounds nuw i8, ptr %59, i64 4
  %83 = load i16, ptr %82, align 2, !tbaa !15
  %84 = and i16 %83, -32768
  %85 = and i16 %83, 32767
  %86 = zext nneg i16 %85 to i32
  %87 = lshr i32 %86, %13
  %88 = and i32 %87, 1
  %89 = add nuw nsw i32 %88, %87
  %90 = shl nuw nsw i32 %89, %13
  %91 = trunc i32 %90 to i16
  %92 = and i32 %90, 64512
  %93 = icmp samesign ugt i32 %92, 31743
  %94 = and i16 %83, %16
  %.0.i27.us = select i1 %93, i16 %94, i16 %91
  %95 = or i16 %.0.i27.us, %84
  %96 = getelementptr inbounds nuw i8, ptr %62, i64 4
  store i16 %95, ptr %96, align 2, !tbaa !15
  br label %97

97:                                               ; preds = %_ZNK9Imath_3_24half5roundEj.exit29.us35, %_ZNK9Imath_3_24half5roundEj.exit.us33
  %indvars.iv.next41 = add nuw nsw i64 %indvars.iv40, 1
  %exitcond44.not = icmp eq i64 %indvars.iv.next41, %wide.trip.count53
  br i1 %exitcond44.not, label %._crit_edge, label %_ZNK9Imath_3_24half5roundEj.exit.us33, !llvm.loop !27

._crit_edge:                                      ; preds = %148, %97, %58, %31, %5
  ret void

_ZNK9Imath_3_24half5roundEj.exit:                 ; preds = %.lr.ph.split, %148
  %indvars.iv = phi i64 [ %indvars.iv.next, %148 ], [ 0, %.lr.ph.split ]
  %98 = getelementptr inbounds nuw %"struct.Imf_3_4::Rgba", ptr %3, i64 %indvars.iv
  %99 = getelementptr inbounds nuw i8, ptr %98, i64 2
  %100 = load i16, ptr %99, align 2, !tbaa !15
  %101 = and i16 %100, -32768
  %102 = and i16 %100, 32767
  %103 = zext nneg i16 %102 to i32
  %104 = lshr i32 %103, %8
  %105 = and i32 %104, 1
  %106 = add nuw nsw i32 %105, %104
  %107 = shl nuw nsw i32 %106, %8
  %108 = trunc i32 %107 to i16
  %109 = and i32 %107, 64512
  %110 = icmp samesign ugt i32 %109, 31743
  %111 = and i16 %100, %11
  %.0.i = select i1 %110, i16 %111, i16 %108
  %112 = or i16 %.0.i, %101
  %113 = getelementptr inbounds nuw %"struct.Imf_3_4::Rgba", ptr %4, i64 %indvars.iv
  %114 = getelementptr inbounds nuw i8, ptr %113, i64 2
  store i16 %112, ptr %114, align 2, !tbaa !15
  %115 = getelementptr inbounds nuw i8, ptr %98, i64 6
  %116 = getelementptr inbounds nuw i8, ptr %113, i64 6
  %117 = load i16, ptr %115, align 2, !tbaa !15
  store i16 %117, ptr %116, align 2, !tbaa !15
  %118 = and i64 %indvars.iv, 1
  %119 = icmp eq i64 %118, 0
  br i1 %119, label %_ZNK9Imath_3_24half5roundEj.exit29, label %148

_ZNK9Imath_3_24half5roundEj.exit29:               ; preds = %_ZNK9Imath_3_24half5roundEj.exit
  %120 = load i16, ptr %98, align 2, !tbaa !15
  %121 = and i16 %120, -32768
  %122 = and i16 %120, 32767
  %123 = zext nneg i16 %122 to i32
  %124 = lshr i32 %123, %13
  %125 = and i32 %124, 1
  %126 = add nuw nsw i32 %125, %124
  %127 = shl nuw nsw i32 %126, %13
  %128 = trunc i32 %127 to i16
  %129 = and i32 %127, 64512
  %130 = icmp samesign ugt i32 %129, 31743
  %131 = and i16 %120, %16
  %.0.i24 = select i1 %130, i16 %131, i16 %128
  %132 = or i16 %.0.i24, %121
  store i16 %132, ptr %113, align 2, !tbaa !15
  %133 = getelementptr inbounds nuw i8, ptr %98, i64 4
  %134 = load i16, ptr %133, align 2, !tbaa !15
  %135 = and i16 %134, -32768
  %136 = and i16 %134, 32767
  %137 = zext nneg i16 %136 to i32
  %138 = lshr i32 %137, %13
  %139 = and i32 %138, 1
  %140 = add nuw nsw i32 %139, %138
  %141 = shl nuw nsw i32 %140, %13
  %142 = trunc i32 %141 to i16
  %143 = and i32 %141, 64512
  %144 = icmp samesign ugt i32 %143, 31743
  %145 = and i16 %134, %16
  %.0.i27 = select i1 %144, i16 %145, i16 %142
  %146 = or i16 %.0.i27, %135
  %147 = getelementptr inbounds nuw i8, ptr %113, i64 4
  store i16 %146, ptr %147, align 2, !tbaa !15
  br label %148

148:                                              ; preds = %_ZNK9Imath_3_24half5roundEj.exit, %_ZNK9Imath_3_24half5roundEj.exit29
  %indvars.iv.next = add nuw nsw i64 %indvars.iv, 1
  %exitcond.not = icmp eq i64 %indvars.iv.next, %wide.trip.count53
  br i1 %exitcond.not, label %._crit_edge, label %_ZNK9Imath_3_24half5roundEj.exit, !llvm.loop !27
}